target datalayout = "e-m:e-p270:32:32-p271:32:32-p272:64:64-i64:64-i128:128-f80:128-n8:16:32:64-S128"
target triple = "x86_64-pc-linux-gnu"

%"class.std::__1::__assoc_sub_state" = type <{ %"class.std::__1::__shared_count", %"class.std::exception_ptr", %"class.std::__1::mutex", %"class.std::__1::condition_variable", i32, [4 x i8] }>
%"class.std::__1::__shared_count" = type { ptr, i64 }
%"class.std::exception_ptr" = type { ptr }
%"class.std::__1::mutex" = type { %union.pthread_mutex_t }
%union.pthread_mutex_t = type { %struct.__pthread_mutex_s }
%struct.__pthread_mutex_s = type { i32, i32, i32, i32, i32, i16, i16, %struct.__pthread_internal_list }
%struct.__pthread_internal_list = type { ptr, ptr }
%"class.std::__1::condition_variable" = type { %union.pthread_cond_t }
%union.pthread_cond_t = type { %struct.__pthread_cond_s }
%struct.__pthread_cond_s = type { %union.__atomic_wide_counter, %union.__atomic_wide_counter, [2 x i32], [2 x i32], i32, i32, [2 x i32] }
%union.__atomic_wide_counter = type { i64 }
%"class.std::__1::future" = type { ptr }
%"class.std::__1::lock_guard" = type { ptr }

; Function Attrs: inlinehint mustprogress nounwind uwtable
define linkonce_odr hidden noundef i64 @_ZNSt3__134__libcpp_atomic_refcount_incrementB8ne210000IlEET_RS1_(ptr noundef nonnull align 8 dereferenceable(8) %0) #5 comdat {
  %2 = alloca ptr, align 8
  %3 = alloca i64, align 8
  %4 = alloca i64, align 8
  store ptr %0, ptr %2, align 8, !tbaa !99
  %5 = load ptr, ptr %2, align 8, !tbaa !99
  store i64 1, ptr %3, align 8, !tbaa !77
  %6 = load i64, ptr %3, align 8
  %7 = atomicrmw add ptr %5, i64 %6 monotonic, align 8
  %8 = add i64 %7, %6
  store i64 %8, ptr %4, align 8
  %9 = load i64, ptr %4, align 8, !tbaa !77
  ret i64 %9
}

; Function Attrs: mustprogress nounwind uwtable
define linkonce_odr hidden void @_ZNSt3__114__shared_count12__add_sharedB8ne210000Ev(ptr noundef nonnull align 8 dereferenceable(16) %0) #0 comdat align 2 {
  %2 = alloca ptr, align 8
  store ptr %0, ptr %2, align 8, !tbaa !60
  %3 = load ptr, ptr %2, align 8
  %4 = getelementptr inbounds nuw %"class.std::__1::__shared_count", ptr %3, i32 0, i32 1
  %5 = call noundef i64 @_ZNSt3__134__libcpp_atomic_refcount_incrementB8ne210000IlEET_RS1_(ptr noundef nonnull align 8 dereferenceable(8) %4) #2
  ret void
}

; Function Attrs: mustprogress nounwind uwtable
define linkonce_odr hidden void @_ZNSt3__110lock_guardINS_5mutexEED2B8ne210000Ev(ptr noundef nonnull align 8 dereferenceable(8) %0) unnamed_addr #0 comdat align 2 {
  %2 = alloca ptr, align 8
  store ptr %0, ptr %2, align 8, !tbaa !95
  %3 = load ptr, ptr %2, align 8
  %4 = getelementptr inbounds nuw %"class.std::__1::lock_guard", ptr %3, i32 0, i32 0
  %5 = load ptr, ptr %4, align 8, !tbaa !97
  call void @_ZNSt3__15mutex6unlockEv(ptr noundef nonnull align 8 dereferenceable(40) %5) #2
  ret void
}

; Function Attrs: mustprogress uwtable
define linkonce_odr hidden void @_ZNSt3__110lock_guardINS_5mutexEEC2B8ne210000ERS1_(ptr noundef nonnull align 8 dereferenceable(8) %0, ptr noundef nonnull align 8 dereferenceable(40) %1) unnamed_addr #1 comdat align 2 {
  %3 = alloca ptr, align 8
  %4 = alloca ptr, align 8
  store ptr %0, ptr %3, align 8, !tbaa !95
  store ptr %1, ptr %4, align 8, !tbaa !36
  %5 = load ptr, ptr %3, align 8
  %6 = getelementptr inbounds nuw %"class.std::__1::lock_guard", ptr %5, i32 0, i32 0
  %7 = load ptr, ptr %4, align 8, !tbaa !36
  store ptr %7, ptr %6, align 8, !tbaa !36
  %8 = getelementptr inbounds nuw %"class.std::__1::lock_guard", ptr %5, i32 0, i32 0
  %9 = load ptr, ptr %8, align 8, !tbaa !97
  call void @_ZNSt3__15mutex4lockEv(ptr noundef nonnull align 8 dereferenceable(40) %9)
  ret void
}

; Function Attrs: mustprogress uwtable
define linkonce_odr hidden void @_ZNSt3__117__assoc_sub_state15__attach_futureB8ne210000Ev(ptr noundef nonnull align 8 dereferenceable(116) %0) #1 comdat align 2 personality ptr @__gxx_personality_v0 {
  %2 = alloca ptr, align 8
  %3 = alloca %"class.std::__1::lock_guard", align 8
  %4 = alloca i8, align 1
  %5 = alloca ptr, align 8
  %6 = alloca i32, align 4
  store ptr %0, ptr %2, align 8, !tbaa !25
  %7 = load ptr, ptr %2, align 8
  call void @llvm.lifetime.start.p0(i64 8, ptr %3) #2
  %8 = getelementptr inbounds nuw %"class.std::__1::__assoc_sub_state", ptr %7, i32 0, i32 2
  call void @_ZNSt3__110lock_guardINS_5mutexEEC2B8ne210000ERS1_(ptr noundef nonnull align 8 dereferenceable(8) %3, ptr noundef nonnull align 8 dereferenceable(40) %8)
  call void @llvm.lifetime.start.p0(i64 1, ptr %4) #2
  %9 = getelementptr inbounds nuw %"class.std::__1::__assoc_sub_state", ptr %7, i32 0, i32 4
  %10 = load i32, ptr %9, align 8, !tbaa !27
  %11 = and i32 %10, 2
  %12 = icmp ne i32 %11, 0
  %13 = zext i1 %12 to i8
  store i8 %13, ptr %4, align 1, !tbaa !59
  %14 = load i8, ptr %4, align 1, !tbaa !59, !range !44, !noundef !45
  %15 = trunc i8 %14 to i1
  br i1 %15, label %16, label %22

16:                                               ; preds = %1
  invoke void @_ZNSt3__120__throw_future_errorB8ne210000ENS_11future_errcE(i32 noundef 1) #18
          to label %17 unwind label %18

17:                                               ; preds = %16
  unreachable

18:                                               ; preds = %16
  %19 = landingpad { ptr, i32 }
          cleanup
  %20 = extractvalue { ptr, i32 } %19, 0
  store ptr %20, ptr %5, align 8
  %21 = extractvalue { ptr, i32 } %19, 1
  store i32 %21, ptr %6, align 4
  call void @llvm.lifetime.end.p0(i64 1, ptr %4) #2
  call void @_ZNSt3__110lock_guardINS_5mutexEED2B8ne210000Ev(ptr noundef nonnull align 8 dereferenceable(8) %3) #2
  call void @llvm.lifetime.end.p0(i64 8, ptr %3) #2
  br label %26

22:                                               ; preds = %1
  call void @_ZNSt3__114__shared_count12__add_sharedB8ne210000Ev(ptr noundef nonnull align 8 dereferenceable(16) %7) #2
  %23 = getelementptr inbounds nuw %"class.std::__1::__assoc_sub_state", ptr %7, i32 0, i32 4
  %24 = load i32, ptr %23, align 8, !tbaa !27
  %25 = or i32 %24, 2
  store i32 %25, ptr %23, align 8, !tbaa !27
  call void @llvm.lifetime.end.p0(i64 1, ptr %4) #2
  call void @_ZNSt3__110lock_guardINS_5mutexEED2B8ne210000Ev(ptr noundef nonnull align 8 dereferenceable(8) %3) #2
  call void @llvm.lifetime.end.p0(i64 8, ptr %3) #2
  ret void

26:                                               ; preds = %18
  %27 = load ptr, ptr %5, align 8
  %28 = load i32, ptr %6, align 4
  %29 = insertvalue { ptr, i32 } poison, ptr %27, 0
  %30 = insertvalue { ptr, i32 } %29, i32 %28, 1
  resume { ptr, i32 } %30
}

; Function Attrs: mustprogress uwtable
define dso_local void @_ZNSt3__16futureIvEC2EPNS_17__assoc_sub_stateE(ptr noundef nonnull align 8 dereferenceable(8) %0, ptr noundef %1) unnamed_addr #1 align 2 {
  %3 = alloca ptr, align 8
  %4 = alloca ptr, align 8
  store ptr %0, ptr %3, align 8, !tbaa !55
  store ptr %1, ptr %4, align 8, !tbaa !25
  %5 = load ptr, ptr %3, align 8
  %6 = getelementptr inbounds nuw %"class.std::__1::future", ptr %5, i32 0, i32 0
  %7 = load ptr, ptr %4, align 8, !tbaa !25
  store ptr %7, ptr %6, align 8, !tbaa !57
  %8 = getelementptr inbounds nuw %"class.std::__1::future", ptr %5, i32 0, i32 0
  %9 = load ptr, ptr %8, align 8, !tbaa !57
  call void @_ZNSt3__117__assoc_sub_state15__attach_futureB8ne210000Ev(ptr noundef nonnull align 8 dereferenceable(116) %9)
  ret void
}