; Function Attrs: mustprogress uwtable
define dso_local void @_ZNSt3__16futureIvEC2EPNS_17__assoc_sub_stateE(ptr noundef nonnull writeonly align 8 captures(none) dereferenceable(8) initializes((0, 8)) %0, ptr noundef %1) unnamed_addr #1 align 2 personality ptr @__gxx_personality_v0 {
  store ptr %1, ptr %0, align 8, !tbaa !35
  %3 = getelementptr inbounds nuw i8, ptr %1, i64 24
  tail call void @_ZNSt3__15mutex4lockEv(ptr noundef nonnull align 8 dereferenceable(40) %3)
  %4 = getelementptr inbounds nuw i8, ptr %1, i64 112
  %5 = load i32, ptr %4, align 8, !tbaa !16
  %6 = and i32 %5, 2
  %.not.i = icmp eq i32 %6, 0
  br i1 %.not.i, label %_ZNSt3__117__assoc_sub_state15__attach_futureB8ne210000Ev.exit, label %7

7:                                                ; preds = %2
  invoke void @_ZNSt3__120__throw_future_errorB8ne210000ENS_11future_errcE(i32 noundef 1) #23
          to label %8 unwind label %9

8:                                                ; preds = %7
  unreachable

9:                                                ; preds = %7
  %10 = landingpad { ptr, i32 }
          cleanup
  tail call void @_ZNSt3__15mutex6unlockEv(ptr noundef nonnull align 8 dereferenceable(40) %3) #21
  resume { ptr, i32 } %10

_ZNSt3__117__assoc_sub_state15__attach_futureB8ne210000Ev.exit: ; preds = %2
  %11 = getelementptr inbounds nuw i8, ptr %1, i64 8
  %12 = atomicrmw add ptr %11, i64 1 monotonic, align 8
  %13 = or disjoint i32 %5, 2
  store i32 %13, ptr %4, align 8, !tbaa !16
  tail call void @_ZNSt3__15mutex6unlockEv(ptr noundef nonnull align 8 dereferenceable(40) %3) #21
  ret void
}